; Function Attrs: mustprogress nofree norecurse nosync nounwind willreturn memory(readwrite, inaccessiblemem: none) uwtable
define internal noundef nonnull ptr @sys_gettrace(ptr readnone captures(none) %0, ptr readnone captures(none) %1) #13 {
  %3 = tail call align 8 ptr @llvm.threadlocal.address.p0(ptr align 8 @_Py_tss_tstate)
  %4 = load ptr, ptr %3, align 8, !tbaa !92
  %5 = getelementptr inbounds nuw i8, ptr %4, i64 104
  %6 = load ptr, ptr %5, align 8, !tbaa !291
  %7 = icmp eq ptr %6, null
  %spec.store.select.i = select i1 %7, ptr @_Py_NoneStruct, ptr %6
  %8 = load i32, ptr %spec.store.select.i, align 8, !tbaa !94
  %9 = icmp slt i32 %8, 0
  br i1 %9, label %sys_gettrace_impl.exit, label %10

10:                                               ; preds = %2
  %11 = add nuw i32 %8, 1
  store i32 %11, ptr %spec.store.select.i, align 8, !tbaa !94
  br label %sys_gettrace_impl.exit

sys_gettrace_impl.exit:                           ; preds = %2, %10
  ret ptr %spec.store.select.i
}